; Function Attrs: mustprogress nounwind uwtable
define internal void @_ZN8facebook6hermes12_GLOBAL__N_112TimedRuntimeD2Ev(ptr noundef nonnull align 8 dereferenceable(112) %this) unnamed_addr #5 align 2 personality ptr @__gxx_personality_v0 {
entry:
  %runtime_ = getelementptr inbounds i8, ptr %this, i64 104
  %0 = load ptr, ptr %runtime_, align 8
  %cmp.not.i = icmp eq ptr %0, null
  br i1 %cmp.not.i, label %_ZNSt10unique_ptrIN8facebook3jsi7RuntimeESt14default_deleteIS2_EED2Ev.exit, label %_ZNKSt14default_deleteIN8facebook3jsi7RuntimeEEclEPS2_.exit.i

_ZNKSt14default_deleteIN8facebook3jsi7RuntimeEEclEPS2_.exit.i: ; preds = %entry
  %vtable.i.i = load ptr, ptr %0, align 8
  %vfn.i.i = getelementptr inbounds i8, ptr %vtable.i.i, i64 8
  %1 = load ptr, ptr %vfn.i.i, align 8
  tail call void %1(ptr noundef nonnull align 8 dereferenceable(8) %0) #21
  br label %_ZNSt10unique_ptrIN8facebook3jsi7RuntimeESt14default_deleteIS2_EED2Ev.exit

_ZNSt10unique_ptrIN8facebook3jsi7RuntimeESt14default_deleteIS2_EED2Ev.exit: ; preds = %entry, %_ZNKSt14default_deleteIN8facebook3jsi7RuntimeEEclEPS2_.exit.i
  store ptr null, ptr %runtime_, align 8
  tail call void @_ZN8facebook3jsi7RuntimeD2Ev(ptr noundef nonnull align 8 dereferenceable(8) %this) #21
  ret void
}